target datalayout = "e-m:e-p270:32:32-p271:32:32-p272:64:64-i64:64-i128:128-f80:128-n8:16:32:64-S128"
target triple = "x86_64-pc-linux-gnu"

%struct.lexbor_str_t = type { ptr, i64 }

; Function Attrs: nounwind uwtable
define hidden ptr @lexbor_str_init(ptr noundef %0, ptr noundef %1, i64 noundef %2) #0 {
  %4 = alloca ptr, align 8
  %5 = alloca ptr, align 8
  %6 = alloca ptr, align 8
  %7 = alloca i64, align 8
  store ptr %0, ptr %5, align 8
  store ptr %1, ptr %6, align 8
  store i64 %2, ptr %7, align 8
  %8 = load ptr, ptr %5, align 8
  %9 = icmp eq ptr %8, null
  br i1 %9, label %10, label %11

10:                                               ; preds = %3
  store ptr null, ptr %4, align 8
  br label %32

11:                                               ; preds = %3
  %12 = load ptr, ptr %6, align 8
  %13 = load i64, ptr %7, align 8
  %14 = add i64 %13, 1
  %15 = call ptr @lexbor_mraw_alloc(ptr noundef %12, i64 noundef %14)
  %16 = load ptr, ptr %5, align 8
  %17 = getelementptr inbounds %struct.lexbor_str_t, ptr %16, i32 0, i32 0
  store ptr %15, ptr %17, align 8
  %18 = load ptr, ptr %5, align 8
  %19 = getelementptr inbounds %struct.lexbor_str_t, ptr %18, i32 0, i32 1
  store i64 0, ptr %19, align 8
  %20 = load ptr, ptr %5, align 8
  %21 = getelementptr inbounds %struct.lexbor_str_t, ptr %20, i32 0, i32 0
  %22 = load ptr, ptr %21, align 8
  %23 = icmp ne ptr %22, null
  br i1 %23, label %24, label %28

24:                                               ; preds = %11
  %25 = load ptr, ptr %5, align 8
  %26 = getelementptr inbounds %struct.lexbor_str_t, ptr %25, i32 0, i32 0
  %27 = load ptr, ptr %26, align 8
  store i8 0, ptr %27, align 1
  br label %28

28:                                               ; preds = %24, %11
  %29 = load ptr, ptr %5, align 8
  %30 = getelementptr inbounds %struct.lexbor_str_t, ptr %29, i32 0, i32 0
  %31 = load ptr, ptr %30, align 8
  store ptr %31, ptr %4, align 8
  br label %32

32:                                               ; preds = %28, %10
  %33 = load ptr, ptr %4, align 8
  ret ptr %33
}