; Function Attrs: nounwind uwtable
define hidden ptr @lexbor_str_init(ptr noundef %0, ptr noundef %1, i64 noundef %2) local_unnamed_addr #0 {
  %4 = icmp eq ptr %0, null
  br i1 %4, label %10, label %5

5:                                                ; preds = %3
  %6 = add i64 %2, 1
  %7 = tail call ptr @lexbor_mraw_alloc(ptr noundef %1, i64 noundef %6) #15
  store ptr %7, ptr %0, align 8
  %8 = getelementptr inbounds i8, ptr %0, i64 8
  store i64 0, ptr %8, align 8
  %.not = icmp eq ptr %7, null
  br i1 %.not, label %10, label %9

9:                                                ; preds = %5
  store i8 0, ptr %7, align 1
  %.pre = load ptr, ptr %0, align 8
  br label %10

10:                                               ; preds = %5, %9, %3
  %.0 = phi ptr [ null, %3 ], [ %.pre, %9 ], [ null, %5 ]
  ret ptr %.0
}